target datalayout = "e-m:e-p270:32:32-p271:32:32-p272:64:64-i64:64-i128:128-f80:128-n8:16:32:64-S128"
target triple = "x86_64-pc-linux-gnu"

%class.PerfData = type { ptr, ptr, i32, i32, i8, i32, ptr, ptr }
%"struct.Atomic::PlatformAdd" = type { i8 }

@_ZN13ThreadService20_total_threads_countE = hidden global ptr null, align 8
@_ZN13ThreadService19_live_threads_countE = hidden global ptr null, align 8
@_ZN13ThreadService19_peak_threads_countE = hidden global ptr null, align 8
@_ZN13ThreadService21_daemon_threads_countE = hidden global ptr null, align 8
@_ZN13ThreadService21_atomic_threads_countE = hidden global i32 0, align 4
@_ZN13ThreadService28_atomic_daemon_threads_countE = hidden global i32 0, align 4

; Function Attrs: mustprogress nounwind uwtable
define linkonce_odr hidden noundef i32 @_ZNK6Atomic11PlatformAddILm4EE14fetch_then_addIiiEET_PVS3_T0_19atomic_memory_order(ptr noundef nonnull align 1 dereferenceable(1) %0, ptr noundef %1, i32 noundef %2, i32 noundef %3) #1 comdat align 2 {
  %5 = alloca ptr, align 8
  %6 = alloca ptr, align 8
  %7 = alloca i32, align 4
  %8 = alloca i32, align 4
  %9 = alloca i32, align 4
  store ptr %0, ptr %5, align 8
  store ptr %1, ptr %6, align 8
  store i32 %2, ptr %7, align 4
  store i32 %3, ptr %8, align 4
  %10 = load i32, ptr %7, align 4
  %11 = load ptr, ptr %6, align 8
  %12 = call i32 asm sideeffect "lock xaddl $0,($2)", "=r,0,r,~{cc},~{memory},~{dirflag},~{fpsr},~{flags}"(i32 %10, ptr %11) #8, !srcloc !44
  store i32 %12, ptr %9, align 4
  %13 = load i32, ptr %9, align 4
  ret i32 %13
}

; Function Attrs: mustprogress nounwind uwtable
define linkonce_odr hidden noundef i32 @_ZNK6Atomic11PlatformAddILm4EE14add_then_fetchIiiEET_PVS3_T0_19atomic_memory_order(ptr noundef nonnull align 1 dereferenceable(1) %0, ptr noundef %1, i32 noundef %2, i32 noundef %3) #1 comdat align 2 {
  %5 = alloca ptr, align 8
  %6 = alloca ptr, align 8
  %7 = alloca i32, align 4
  %8 = alloca i32, align 4
  store ptr %0, ptr %5, align 8
  store ptr %1, ptr %6, align 8
  store i32 %2, ptr %7, align 4
  store i32 %3, ptr %8, align 4
  %9 = load ptr, ptr %5, align 8
  %10 = load ptr, ptr %6, align 8
  %11 = load i32, ptr %7, align 4
  %12 = load i32, ptr %8, align 4
  %13 = call noundef i32 @_ZNK6Atomic11PlatformAddILm4EE14fetch_then_addIiiEET_PVS3_T0_19atomic_memory_order(ptr noundef nonnull align 1 dereferenceable(1) %9, ptr noundef %10, i32 noundef %11, i32 noundef %12)
  %14 = load i32, ptr %7, align 4
  %15 = add nsw i32 %13, %14
  ret i32 %15
}

; Function Attrs: mustprogress nounwind uwtable
define linkonce_odr hidden noundef i32 @_ZN6Atomic7AddImplIiivE14add_then_fetchEPVii19atomic_memory_order(ptr noundef %0, i32 noundef %1, i32 noundef %2) #1 comdat align 2 {
  %4 = alloca ptr, align 8
  %5 = alloca i32, align 4
  %6 = alloca i32, align 4
  %7 = alloca i32, align 4
  %8 = alloca %"struct.Atomic::PlatformAdd", align 1
  store ptr %0, ptr %4, align 8
  store i32 %1, ptr %5, align 4
  store i32 %2, ptr %6, align 4
  %9 = load i32, ptr %5, align 4
  store i32 %9, ptr %7, align 4
  %10 = load ptr, ptr %4, align 8
  %11 = load i32, ptr %7, align 4
  %12 = load i32, ptr %6, align 4
  %13 = call noundef i32 @_ZNK6Atomic11PlatformAddILm4EE14add_then_fetchIiiEET_PVS3_T0_19atomic_memory_order(ptr noundef nonnull align 1 dereferenceable(1) %8, ptr noundef %10, i32 noundef %11, i32 noundef %12)
  ret i32 %13
}

; Function Attrs: mustprogress nounwind uwtable
define linkonce_odr hidden noundef i32 @_ZN6Atomic3addIiiEET_PVS1_T0_19atomic_memory_order(ptr noundef %0, i32 noundef %1, i32 noundef %2) #1 comdat align 2 {
  %4 = alloca ptr, align 8
  %5 = alloca i32, align 4
  %6 = alloca i32, align 4
  store ptr %0, ptr %4, align 8
  store i32 %1, ptr %5, align 4
  store i32 %2, ptr %6, align 4
  %7 = load ptr, ptr %4, align 8
  %8 = load i32, ptr %5, align 4
  %9 = load i32, ptr %6, align 4
  %10 = call noundef i32 @_ZN6Atomic7AddImplIiivE14add_then_fetchEPVii19atomic_memory_order(ptr noundef %7, i32 noundef %8, i32 noundef %9)
  ret i32 %10
}

; Function Attrs: mustprogress nounwind uwtable
define linkonce_odr hidden void @_ZN16PerfLongVariable9set_valueEl(ptr noundef nonnull align 8 dereferenceable(56) %0, i64 noundef %1) #1 comdat align 2 {
  %3 = alloca ptr, align 8
  %4 = alloca i64, align 8
  store ptr %0, ptr %3, align 8
  store i64 %1, ptr %4, align 8
  %5 = load ptr, ptr %3, align 8
  %6 = load i64, ptr %4, align 8
  %7 = getelementptr inbounds %class.PerfData, ptr %5, i32 0, i32 7
  %8 = load ptr, ptr %7, align 8
  store i64 %6, ptr %8, align 8
  ret void
}

; Function Attrs: mustprogress nounwind uwtable
define linkonce_odr hidden noundef i64 @_ZN8PerfLong9get_valueEv(ptr noundef nonnull align 8 dereferenceable(48) %0) #1 comdat align 2 {
  %2 = alloca ptr, align 8
  store ptr %0, ptr %2, align 8
  %3 = load ptr, ptr %2, align 8
  %4 = getelementptr inbounds %class.PerfData, ptr %3, i32 0, i32 7
  %5 = load ptr, ptr %4, align 8
  %6 = load i64, ptr %5, align 8
  ret i64 %6
}

; Function Attrs: mustprogress nounwind uwtable
define linkonce_odr hidden void @_ZN6Atomic3incIiEEvPVT_19atomic_memory_order(ptr noundef %0, i32 noundef %1) #1 comdat align 2 {
  %3 = alloca ptr, align 8
  %4 = alloca i32, align 4
  store ptr %0, ptr %3, align 8
  store i32 %1, ptr %4, align 4
  %5 = load ptr, ptr %3, align 8
  %6 = load i32, ptr %4, align 4
  %7 = call noundef i32 @_ZN6Atomic3addIiiEET_PVS1_T0_19atomic_memory_order(ptr noundef %5, i32 noundef 1, i32 noundef %6)
  ret void
}

; Function Attrs: mustprogress nounwind uwtable
define linkonce_odr hidden void @_ZN15PerfLongVariant3incEv(ptr noundef nonnull align 8 dereferenceable(56) %0) #1 comdat align 2 {
  %2 = alloca ptr, align 8
  store ptr %0, ptr %2, align 8
  %3 = load ptr, ptr %2, align 8
  %4 = getelementptr inbounds %class.PerfData, ptr %3, i32 0, i32 7
  %5 = load ptr, ptr %4, align 8
  %6 = load i64, ptr %5, align 8
  %7 = add nsw i64 %6, 1
  store i64 %7, ptr %5, align 8
  ret void
}

; Function Attrs: mustprogress nounwind uwtable
define internal noundef zeroext i1 @_ZL16is_hidden_threadP10JavaThread(ptr noundef %0) #1 {
  %2 = alloca ptr, align 8
  store ptr %0, ptr %2, align 8
  %3 = load ptr, ptr %2, align 8
  %4 = load ptr, ptr %3, align 8
  %5 = getelementptr inbounds ptr, ptr %4, i64 10
  %6 = load ptr, ptr %5, align 8
  %7 = call noundef zeroext i1 %6(ptr noundef nonnull align 8 dereferenceable(888) %3)
  br i1 %7, label %14, label %8

8:                                                ; preds = %1
  %9 = load ptr, ptr %2, align 8
  %10 = load ptr, ptr %9, align 8
  %11 = getelementptr inbounds ptr, ptr %10, i64 11
  %12 = load ptr, ptr %11, align 8
  %13 = call noundef zeroext i1 %12(ptr noundef nonnull align 8 dereferenceable(888) %9)
  br label %14

14:                                               ; preds = %8, %1
  %15 = phi i1 [ true, %1 ], [ %13, %8 ]
  ret i1 %15
}

; Function Attrs: mustprogress nounwind uwtable
define hidden void @_ZN13ThreadService10add_threadEP10JavaThreadb(ptr noundef %0, i1 noundef zeroext %1) #1 align 2 {
  %3 = alloca ptr, align 8
  %4 = alloca i8, align 1
  %5 = alloca i32, align 4
  store ptr %0, ptr %3, align 8
  %6 = zext i1 %1 to i8
  store i8 %6, ptr %4, align 1
  %7 = load ptr, ptr %3, align 8
  %8 = call noundef zeroext i1 @_ZL16is_hidden_threadP10JavaThread(ptr noundef %7)
  br i1 %8, label %9, label %10

9:                                                ; preds = %2
  br label %28

10:                                               ; preds = %2
  %11 = load ptr, ptr @_ZN13ThreadService20_total_threads_countE, align 8
  call void @_ZN15PerfLongVariant3incEv(ptr noundef nonnull align 8 dereferenceable(56) %11)
  %12 = load ptr, ptr @_ZN13ThreadService19_live_threads_countE, align 8
  call void @_ZN15PerfLongVariant3incEv(ptr noundef nonnull align 8 dereferenceable(56) %12)
  call void @_ZN6Atomic3incIiEEvPVT_19atomic_memory_order(ptr noundef @_ZN13ThreadService21_atomic_threads_countE, i32 noundef 8)
  %13 = load volatile i32, ptr @_ZN13ThreadService21_atomic_threads_countE, align 4
  store i32 %13, ptr %5, align 4
  %14 = load i32, ptr %5, align 4
  %15 = sext i32 %14 to i64
  %16 = load ptr, ptr @_ZN13ThreadService19_peak_threads_countE, align 8
  %17 = call noundef i64 @_ZN8PerfLong9get_valueEv(ptr noundef nonnull align 8 dereferenceable(48) %16)
  %18 = icmp sgt i64 %15, %17
  br i1 %18, label %19, label %23

19:                                               ; preds = %10
  %20 = load ptr, ptr @_ZN13ThreadService19_peak_threads_countE, align 8
  %21 = load i32, ptr %5, align 4
  %22 = sext i32 %21 to i64
  call void @_ZN16PerfLongVariable9set_valueEl(ptr noundef nonnull align 8 dereferenceable(56) %20, i64 noundef %22)
  br label %23

23:                                               ; preds = %19, %10
  %24 = load i8, ptr %4, align 1
  %25 = trunc i8 %24 to i1
  br i1 %25, label %26, label %28

26:                                               ; preds = %23
  %27 = load ptr, ptr @_ZN13ThreadService21_daemon_threads_countE, align 8
  call void @_ZN15PerfLongVariant3incEv(ptr noundef nonnull align 8 dereferenceable(56) %27)
  call void @_ZN6Atomic3incIiEEvPVT_19atomic_memory_order(ptr noundef @_ZN13ThreadService28_atomic_daemon_threads_countE, i32 noundef 8)
  br label %28

28:                                               ; preds = %26, %23, %9
  ret void
}