; Function Attrs: mustprogress nounwind uwtable
define hidden void @_ZN13ThreadService10add_threadEP10JavaThreadb(ptr noundef %0, i1 noundef zeroext %1) local_unnamed_addr #0 align 2 {
  %3 = load ptr, ptr %0, align 8
  %4 = getelementptr inbounds i8, ptr %3, i64 80
  %5 = load ptr, ptr %4, align 8
  %6 = tail call noundef zeroext i1 %5(ptr noundef nonnull align 8 dereferenceable(888) %0) #12
  br i1 %6, label %_ZL16is_hidden_threadP10JavaThread.exit.thread, label %_ZL16is_hidden_threadP10JavaThread.exit

_ZL16is_hidden_threadP10JavaThread.exit:          ; preds = %2
  %7 = load ptr, ptr %0, align 8
  %8 = getelementptr inbounds i8, ptr %7, i64 88
  %9 = load ptr, ptr %8, align 8
  %10 = tail call noundef zeroext i1 %9(ptr noundef nonnull align 8 dereferenceable(888) %0) #12
  br i1 %10, label %_ZL16is_hidden_threadP10JavaThread.exit.thread, label %11

11:                                               ; preds = %_ZL16is_hidden_threadP10JavaThread.exit
  %12 = load ptr, ptr @_ZN13ThreadService20_total_threads_countE, align 8
  %13 = getelementptr inbounds i8, ptr %12, i64 40
  %14 = load ptr, ptr %13, align 8
  %15 = load i64, ptr %14, align 8
  %16 = add nsw i64 %15, 1
  store i64 %16, ptr %14, align 8
  %17 = load ptr, ptr @_ZN13ThreadService19_live_threads_countE, align 8
  %18 = getelementptr inbounds i8, ptr %17, i64 40
  %19 = load ptr, ptr %18, align 8
  %20 = load i64, ptr %19, align 8
  %21 = add nsw i64 %20, 1
  store i64 %21, ptr %19, align 8
  %22 = tail call noundef i32 asm sideeffect "lock xaddl $0,($2)", "=r,0,r,~{cc},~{memory},~{dirflag},~{fpsr},~{flags}"(i32 1, ptr nonnull @_ZN13ThreadService21_atomic_threads_countE) #12, !srcloc !6
  %23 = load volatile i32, ptr @_ZN13ThreadService21_atomic_threads_countE, align 4
  %24 = sext i32 %23 to i64
  %25 = load ptr, ptr @_ZN13ThreadService19_peak_threads_countE, align 8
  %26 = getelementptr inbounds i8, ptr %25, i64 40
  %27 = load ptr, ptr %26, align 8
  %28 = load i64, ptr %27, align 8
  %29 = icmp slt i64 %28, %24
  br i1 %29, label %30, label %31

30:                                               ; preds = %11
  store i64 %24, ptr %27, align 8
  br label %31

31:                                               ; preds = %30, %11
  br i1 %1, label %32, label %_ZL16is_hidden_threadP10JavaThread.exit.thread

32:                                               ; preds = %31
  %33 = load ptr, ptr @_ZN13ThreadService21_daemon_threads_countE, align 8
  %34 = getelementptr inbounds i8, ptr %33, i64 40
  %35 = load ptr, ptr %34, align 8
  %36 = load i64, ptr %35, align 8
  %37 = add nsw i64 %36, 1
  store i64 %37, ptr %35, align 8
  %38 = tail call noundef i32 asm sideeffect "lock xaddl $0,($2)", "=r,0,r,~{cc},~{memory},~{dirflag},~{fpsr},~{flags}"(i32 1, ptr nonnull @_ZN13ThreadService28_atomic_daemon_threads_countE) #12, !srcloc !6
  br label %_ZL16is_hidden_threadP10JavaThread.exit.thread

_ZL16is_hidden_threadP10JavaThread.exit.thread:   ; preds = %2, %_ZL16is_hidden_threadP10JavaThread.exit, %32, %31
  ret void
}